; Function Attrs: nounwind uwtable
define internal range(i32 0, 2) i32 @def_destroy_data(ptr noundef %0) #1 {
  %2 = icmp eq ptr %0, null
  br i1 %2, label %4, label %3

3:                                                ; preds = %1
  tail call void @_CONF_free_data(ptr noundef nonnull %0) #15
  br label %4

4:                                                ; preds = %1, %3
  %.0 = phi i32 [ 1, %3 ], [ 0, %1 ]
  ret i32 %.0
}